target datalayout = "e-m:e-p270:32:32-p271:32:32-p272:64:64-i64:64-i128:128-f80:128-n8:16:32:64-S128"
target triple = "x86_64-pc-linux-gnu"

%struct.AVChannelLayout = type { i32, i32, %union.anon, ptr }
%union.anon = type { i64 }
%struct.AVFormatContext = type { ptr, ptr, ptr, ptr, ptr, i32, i32, ptr, i32, ptr, i32, ptr, ptr, i64, i64, i64, i32, i32, i32, i64, i64, ptr, i32, i32, ptr, i32, i32, i32, i32, ptr, i64, i32, i32, %struct.AVIOInterruptCB, i32, i32, i32, i32, i64, i32, i32, i32, i32, i32, i32, i32, i32, i32, i32, i32, i32, i64, i32, i32, i32, i32, i32, ptr, ptr, ptr, ptr, i32, ptr, ptr, ptr, ptr, i32, ptr, ptr, i64, ptr, ptr, ptr, i64 }
%struct.AVIOInterruptCB = type { ptr, ptr }
%struct.AVStream = type { ptr, i32, i32, ptr, ptr, %struct.AVRational, i64, i64, i64, i32, i32, %struct.AVRational, ptr, %struct.AVRational, %struct.AVPacket, i32, %struct.AVRational, i32 }
%struct.AVPacket = type { ptr, i64, i64, ptr, i32, i32, i32, ptr, i32, i64, i64, ptr, ptr, %struct.AVRational }
%struct.AVRational = type { i32, i32 }
%struct.AVCodecParameters = type { i32, i32, i32, ptr, i32, ptr, i32, i32, i64, i32, i32, i32, i32, i32, i32, %struct.AVRational, %struct.AVRational, i32, i32, i32, i32, i32, i32, i32, %struct.AVChannelLayout, i32, i32, i32, i32, i32, i32 }
%struct.AFCDemuxContext = type { i64 }

@.str = private unnamed_addr constant [4 x i8] c"afc\00", align 1
@.str.1 = private unnamed_addr constant [4 x i8] c"AFC\00", align 1
@ff_afc_demuxer = constant { { ptr, ptr, i32, [4 x i8], ptr, ptr, ptr, ptr }, i32, i32, i32, [4 x i8], ptr, ptr, ptr, ptr, ptr, ptr, ptr, ptr, ptr, ptr } { { ptr, ptr, i32, [4 x i8], ptr, ptr, ptr, ptr } { ptr @.str, ptr @.str.1, i32 57344, [4 x i8] zeroinitializer, ptr @.str, ptr null, ptr null, ptr null }, i32 0, i32 8, i32 0, [4 x i8] zeroinitializer, ptr null, ptr @afc_read_header, ptr @afc_read_packet, ptr null, ptr null, ptr null, ptr null, ptr null, ptr null, ptr null }, align 8

; Function Attrs: nounwind uwtable
define internal i32 @afc_read_header(ptr noundef %0) #0 {
  %2 = alloca i32, align 4
  %3 = alloca ptr, align 8
  %4 = alloca ptr, align 8
  %5 = alloca ptr, align 8
  %6 = alloca i32, align 4
  %7 = alloca i32, align 4
  %8 = alloca %struct.AVChannelLayout, align 8
  store ptr %0, ptr %3, align 8, !tbaa !4
  call void @llvm.lifetime.start.p0(i64 8, ptr %4) #5
  %9 = load ptr, ptr %3, align 8, !tbaa !4
  %10 = getelementptr inbounds nuw %struct.AVFormatContext, ptr %9, i32 0, i32 3
  %11 = load ptr, ptr %10, align 8, !tbaa !9
  store ptr %11, ptr %4, align 8, !tbaa !26
  call void @llvm.lifetime.start.p0(i64 8, ptr %5) #5
  call void @llvm.lifetime.start.p0(i64 4, ptr %6) #5
  %12 = load ptr, ptr %3, align 8, !tbaa !4
  %13 = call ptr @avformat_new_stream(ptr noundef %12, ptr noundef null)
  store ptr %13, ptr %5, align 8, !tbaa !28
  %14 = load ptr, ptr %5, align 8, !tbaa !28
  %15 = icmp ne ptr %14, null
  br i1 %15, label %17, label %16

16:                                               ; preds = %1
  store i32 -12, ptr %2, align 4
  store i32 1, ptr %7, align 4
  br label %89

17:                                               ; preds = %1
  %18 = load ptr, ptr %5, align 8, !tbaa !28
  %19 = getelementptr inbounds nuw %struct.AVStream, ptr %18, i32 0, i32 3
  %20 = load ptr, ptr %19, align 8, !tbaa !30
  %21 = getelementptr inbounds nuw %struct.AVCodecParameters, ptr %20, i32 0, i32 0
  store i32 1, ptr %21, align 8, !tbaa !37
  %22 = load ptr, ptr %5, align 8, !tbaa !28
  %23 = getelementptr inbounds nuw %struct.AVStream, ptr %22, i32 0, i32 3
  %24 = load ptr, ptr %23, align 8, !tbaa !30
  %25 = getelementptr inbounds nuw %struct.AVCodecParameters, ptr %24, i32 0, i32 1
  store i32 69663, ptr %25, align 4, !tbaa !40
  %26 = load ptr, ptr %5, align 8, !tbaa !28
  %27 = getelementptr inbounds nuw %struct.AVStream, ptr %26, i32 0, i32 3
  %28 = load ptr, ptr %27, align 8, !tbaa !30
  %29 = getelementptr inbounds nuw %struct.AVCodecParameters, ptr %28, i32 0, i32 24
  %30 = getelementptr inbounds nuw %struct.AVChannelLayout, ptr %8, i32 0, i32 0
  store i32 1, ptr %30, align 8, !tbaa !41
  %31 = getelementptr inbounds nuw %struct.AVChannelLayout, ptr %8, i32 0, i32 1
  store i32 2, ptr %31, align 4, !tbaa !42
  %32 = getelementptr inbounds nuw %struct.AVChannelLayout, ptr %8, i32 0, i32 2
  store i64 3, ptr %32, align 8, !tbaa !43
  %33 = getelementptr inbounds nuw %struct.AVChannelLayout, ptr %8, i32 0, i32 3
  store ptr null, ptr %33, align 8, !tbaa !44
  call void @llvm.memcpy.p0.p0.i64(ptr align 8 %29, ptr align 8 %8, i64 24, i1 false), !tbaa.struct !45
  %34 = load ptr, ptr %5, align 8, !tbaa !28
  %35 = getelementptr inbounds nuw %struct.AVStream, ptr %34, i32 0, i32 3
  %36 = load ptr, ptr %35, align 8, !tbaa !30
  %37 = call i32 @ff_alloc_extradata(ptr noundef %36, i32 noundef 1)
  store i32 %37, ptr %6, align 4, !tbaa !46
  %38 = icmp slt i32 %37, 0
  br i1 %38, label %39, label %41

39:                                               ; preds = %17
  %40 = load i32, ptr %6, align 4, !tbaa !46
  store i32 %40, ptr %2, align 4
  store i32 1, ptr %7, align 4
  br label %89

41:                                               ; preds = %17
  %42 = load ptr, ptr %5, align 8, !tbaa !28
  %43 = getelementptr inbounds nuw %struct.AVStream, ptr %42, i32 0, i32 3
  %44 = load ptr, ptr %43, align 8, !tbaa !30
  %45 = getelementptr inbounds nuw %struct.AVCodecParameters, ptr %44, i32 0, i32 24
  %46 = getelementptr inbounds nuw %struct.AVChannelLayout, ptr %45, i32 0, i32 1
  %47 = load i32, ptr %46, align 4, !tbaa !48
  %48 = mul nsw i32 8, %47
  %49 = trunc i32 %48 to i8
  %50 = load ptr, ptr %5, align 8, !tbaa !28
  %51 = getelementptr inbounds nuw %struct.AVStream, ptr %50, i32 0, i32 3
  %52 = load ptr, ptr %51, align 8, !tbaa !30
  %53 = getelementptr inbounds nuw %struct.AVCodecParameters, ptr %52, i32 0, i32 3
  %54 = load ptr, ptr %53, align 8, !tbaa !49
  %55 = getelementptr inbounds i8, ptr %54, i64 0
  store i8 %49, ptr %55, align 1, !tbaa !43
  %56 = load ptr, ptr %3, align 8, !tbaa !4
  %57 = getelementptr inbounds nuw %struct.AVFormatContext, ptr %56, i32 0, i32 4
  %58 = load ptr, ptr %57, align 8, !tbaa !50
  %59 = call i32 @avio_rb32(ptr noundef %58)
  %60 = zext i32 %59 to i64
  %61 = add nsw i64 %60, 32
  %62 = load ptr, ptr %4, align 8, !tbaa !26
  %63 = getelementptr inbounds nuw %struct.AFCDemuxContext, ptr %62, i32 0, i32 0
  store i64 %61, ptr %63, align 8, !tbaa !51
  %64 = load ptr, ptr %3, align 8, !tbaa !4
  %65 = getelementptr inbounds nuw %struct.AVFormatContext, ptr %64, i32 0, i32 4
  %66 = load ptr, ptr %65, align 8, !tbaa !50
  %67 = call i32 @avio_rb32(ptr noundef %66)
  %68 = zext i32 %67 to i64
  %69 = load ptr, ptr %5, align 8, !tbaa !28
  %70 = getelementptr inbounds nuw %struct.AVStream, ptr %69, i32 0, i32 7
  store i64 %68, ptr %70, align 8, !tbaa !53
  %71 = load ptr, ptr %3, align 8, !tbaa !4
  %72 = getelementptr inbounds nuw %struct.AVFormatContext, ptr %71, i32 0, i32 4
  %73 = load ptr, ptr %72, align 8, !tbaa !50
  %74 = call i32 @avio_rb16(ptr noundef %73)
  %75 = load ptr, ptr %5, align 8, !tbaa !28
  %76 = getelementptr inbounds nuw %struct.AVStream, ptr %75, i32 0, i32 3
  %77 = load ptr, ptr %76, align 8, !tbaa !30
  %78 = getelementptr inbounds nuw %struct.AVCodecParameters, ptr %77, i32 0, i32 25
  store i32 %74, ptr %78, align 8, !tbaa !54
  %79 = load ptr, ptr %3, align 8, !tbaa !4
  %80 = getelementptr inbounds nuw %struct.AVFormatContext, ptr %79, i32 0, i32 4
  %81 = load ptr, ptr %80, align 8, !tbaa !50
  %82 = call i64 @avio_skip(ptr noundef %81, i64 noundef 22)
  %83 = load ptr, ptr %5, align 8, !tbaa !28
  %84 = load ptr, ptr %5, align 8, !tbaa !28
  %85 = getelementptr inbounds nuw %struct.AVStream, ptr %84, i32 0, i32 3
  %86 = load ptr, ptr %85, align 8, !tbaa !30
  %87 = getelementptr inbounds nuw %struct.AVCodecParameters, ptr %86, i32 0, i32 25
  %88 = load i32, ptr %87, align 8, !tbaa !54
  call void @avpriv_set_pts_info(ptr noundef %83, i32 noundef 64, i32 noundef 1, i32 noundef %88)
  store i32 0, ptr %2, align 4
  store i32 1, ptr %7, align 4
  br label %89

89:                                               ; preds = %41, %39, %16
  call void @llvm.lifetime.end.p0(i64 4, ptr %6) #5
  call void @llvm.lifetime.end.p0(i64 8, ptr %5) #5
  call void @llvm.lifetime.end.p0(i64 8, ptr %4) #5
  %90 = load i32, ptr %2, align 4
  ret i32 %90
}

; Function Attrs: nounwind uwtable
define internal i32 @afc_read_packet(ptr noundef %0, ptr noundef %1) #0 {
  %3 = alloca i32, align 4
  %4 = alloca ptr, align 8
  %5 = alloca ptr, align 8
  %6 = alloca ptr, align 8
  %7 = alloca i64, align 8
  %8 = alloca i32, align 4
  %9 = alloca i32, align 4
  store ptr %0, ptr %4, align 8, !tbaa !4
  store ptr %1, ptr %5, align 8, !tbaa !55
  call void @llvm.lifetime.start.p0(i64 8, ptr %6) #5
  %10 = load ptr, ptr %4, align 8, !tbaa !4
  %11 = getelementptr inbounds nuw %struct.AVFormatContext, ptr %10, i32 0, i32 3
  %12 = load ptr, ptr %11, align 8, !tbaa !9
  store ptr %12, ptr %6, align 8, !tbaa !26
  call void @llvm.lifetime.start.p0(i64 8, ptr %7) #5
  %13 = load ptr, ptr %6, align 8, !tbaa !26
  %14 = getelementptr inbounds nuw %struct.AFCDemuxContext, ptr %13, i32 0, i32 0
  %15 = load i64, ptr %14, align 8, !tbaa !51
  %16 = load ptr, ptr %4, align 8, !tbaa !4
  %17 = getelementptr inbounds nuw %struct.AVFormatContext, ptr %16, i32 0, i32 4
  %18 = load ptr, ptr %17, align 8, !tbaa !50
  %19 = call i64 @avio_tell(ptr noundef %18)
  %20 = sub nsw i64 %15, %19
  store i64 %20, ptr %7, align 8, !tbaa !57
  call void @llvm.lifetime.start.p0(i64 4, ptr %8) #5
  %21 = load i64, ptr %7, align 8, !tbaa !57
  %22 = icmp sgt i64 %21, 2304
  br i1 %22, label %23, label %24

23:                                               ; preds = %2
  br label %26

24:                                               ; preds = %2
  %25 = load i64, ptr %7, align 8, !tbaa !57
  br label %26

26:                                               ; preds = %24, %23
  %27 = phi i64 [ 2304, %23 ], [ %25, %24 ]
  store i64 %27, ptr %7, align 8, !tbaa !57
  %28 = load i64, ptr %7, align 8, !tbaa !57
  %29 = icmp sle i64 %28, 0
  br i1 %29, label %30, label %31

30:                                               ; preds = %26
  store i32 -541478725, ptr %3, align 4
  store i32 1, ptr %9, align 4
  br label %42

31:                                               ; preds = %26
  %32 = load ptr, ptr %4, align 8, !tbaa !4
  %33 = getelementptr inbounds nuw %struct.AVFormatContext, ptr %32, i32 0, i32 4
  %34 = load ptr, ptr %33, align 8, !tbaa !50
  %35 = load ptr, ptr %5, align 8, !tbaa !55
  %36 = load i64, ptr %7, align 8, !tbaa !57
  %37 = trunc i64 %36 to i32
  %38 = call i32 @av_get_packet(ptr noundef %34, ptr noundef %35, i32 noundef %37)
  store i32 %38, ptr %8, align 4, !tbaa !46
  %39 = load ptr, ptr %5, align 8, !tbaa !55
  %40 = getelementptr inbounds nuw %struct.AVPacket, ptr %39, i32 0, i32 5
  store i32 0, ptr %40, align 4, !tbaa !58
  %41 = load i32, ptr %8, align 4, !tbaa !46
  store i32 %41, ptr %3, align 4
  store i32 1, ptr %9, align 4
  br label %42

42:                                               ; preds = %31, %30
  call void @llvm.lifetime.end.p0(i64 4, ptr %8) #5
  call void @llvm.lifetime.end.p0(i64 8, ptr %7) #5
  call void @llvm.lifetime.end.p0(i64 8, ptr %6) #5
  %43 = load i32, ptr %3, align 4
  ret i32 %43
}

; Function Attrs: nocallback nofree nosync nounwind willreturn memory(argmem: readwrite)
declare void @llvm.lifetime.start.p0(i64 immarg, ptr captures(none)) #1

declare ptr @avformat_new_stream(ptr noundef, ptr noundef) #2

; Function Attrs: nocallback nofree nounwind willreturn memory(argmem: readwrite)
declare void @llvm.memcpy.p0.p0.i64(ptr noalias writeonly captures(none), ptr noalias readonly captures(none), i64, i1 immarg) #3

declare i32 @ff_alloc_extradata(ptr noundef, i32 noundef) #2

declare i32 @avio_rb32(ptr noundef) #2

declare i32 @avio_rb16(ptr noundef) #2

declare i64 @avio_skip(ptr noundef, i64 noundef) #2

declare void @avpriv_set_pts_info(ptr noundef, i32 noundef, i32 noundef, i32 noundef) #2

; Function Attrs: nocallback nofree nosync nounwind willreturn memory(argmem: readwrite)
declare void @llvm.lifetime.end.p0(i64 immarg, ptr captures(none)) #1

; Function Attrs: alwaysinline nounwind uwtable
define internal i64 @avio_tell(ptr noundef %0) #4 {
  %2 = alloca ptr, align 8
  store ptr %0, ptr %2, align 8, !tbaa !59
  %3 = load ptr, ptr %2, align 8, !tbaa !59
  %4 = call i64 @avio_seek(ptr noundef %3, i64 noundef 0, i32 noundef 1)
  ret i64 %4
}

declare i32 @av_get_packet(ptr noundef, ptr noundef, i32 noundef) #2

declare i64 @avio_seek(ptr noundef, i64 noundef, i32 noundef) #2


!llvm.module.flags = !{!0, !1, !2, !3}

!0 = !{i32 1, !"wchar_size", i32 4}
!1 = !{i32 8, !"PIC Level", i32 2}
!2 = !{i32 7, !"uwtable", i32 2}
!3 = !{i32 1, !"override-stack-alignment", i32 16}
!4 = !{!5, !5, i64 0}
!5 = !{!"p1 _ZTS15AVFormatContext", !6, i64 0}
!6 = !{!"any pointer", !7, i64 0}
!7 = !{!"omnipotent char", !8, i64 0}
!8 = !{!"Simple C/C++ TBAA"}
!9 = !{!10, !6, i64 24}
!10 = !{!"AVFormatContext", !11, i64 0, !12, i64 8, !13, i64 16, !6, i64 24, !14, i64 32, !15, i64 40, !15, i64 44, !16, i64 48, !15, i64 56, !18, i64 64, !15, i64 72, !19, i64 80, !20, i64 88, !21, i64 96, !21, i64 104, !21, i64 112, !15, i64 120, !15, i64 124, !15, i64 128, !21, i64 136, !21, i64 144, !20, i64 152, !15, i64 160, !15, i64 164, !22, i64 168, !15, i64 176, !15, i64 180, !15, i64 184, !15, i64 188, !23, i64 192, !21, i64 200, !15, i64 208, !15, i64 212, !24, i64 216, !15, i64 232, !15, i64 236, !15, i64 240, !15, i64 244, !21, i64 248, !15, i64 256, !15, i64 260, !15, i64 264, !15, i64 268, !15, i64 272, !15, i64 276, !15, i64 280, !15, i64 284, !15, i64 288, !15, i64 292, !15, i64 296, !15, i64 300, !21, i64 304, !15, i64 312, !15, i64 316, !15, i64 320, !15, i64 324, !15, i64 328, !20, i64 336, !20, i64 344, !20, i64 352, !20, i64 360, !15, i64 368, !25, i64 376, !25, i64 384, !25, i64 392, !25, i64 400, !15, i64 408, !6, i64 416, !6, i64 424, !21, i64 432, !20, i64 440, !6, i64 448, !6, i64 456, !21, i64 464}
!11 = !{!"p1 _ZTS7AVClass", !6, i64 0}
!12 = !{!"p1 _ZTS13AVInputFormat", !6, i64 0}
!13 = !{!"p1 _ZTS14AVOutputFormat", !6, i64 0}
!14 = !{!"p1 _ZTS11AVIOContext", !6, i64 0}
!15 = !{!"int", !7, i64 0}
!16 = !{!"p2 _ZTS8AVStream", !17, i64 0}
!17 = !{!"any p2 pointer", !6, i64 0}
!18 = !{!"p2 _ZTS13AVStreamGroup", !17, i64 0}
!19 = !{!"p2 _ZTS9AVChapter", !17, i64 0}
!20 = !{!"p1 omnipotent char", !6, i64 0}
!21 = !{!"long", !7, i64 0}
!22 = !{!"p2 _ZTS9AVProgram", !17, i64 0}
!23 = !{!"p1 _ZTS12AVDictionary", !6, i64 0}
!24 = !{!"AVIOInterruptCB", !6, i64 0, !6, i64 8}
!25 = !{!"p1 _ZTS7AVCodec", !6, i64 0}
!26 = !{!27, !27, i64 0}
!27 = !{!"p1 _ZTS15AFCDemuxContext", !6, i64 0}
!28 = !{!29, !29, i64 0}
!29 = !{!"p1 _ZTS8AVStream", !6, i64 0}
!30 = !{!31, !32, i64 16}
!31 = !{!"AVStream", !11, i64 0, !15, i64 8, !15, i64 12, !32, i64 16, !6, i64 24, !33, i64 32, !21, i64 40, !21, i64 48, !21, i64 56, !15, i64 64, !15, i64 68, !33, i64 72, !23, i64 80, !33, i64 88, !34, i64 96, !15, i64 200, !33, i64 204, !15, i64 212}
!32 = !{!"p1 _ZTS17AVCodecParameters", !6, i64 0}
!33 = !{!"AVRational", !15, i64 0, !15, i64 4}
!34 = !{!"AVPacket", !35, i64 0, !21, i64 8, !21, i64 16, !20, i64 24, !15, i64 32, !15, i64 36, !15, i64 40, !36, i64 48, !15, i64 56, !21, i64 64, !21, i64 72, !6, i64 80, !35, i64 88, !33, i64 96}
!35 = !{!"p1 _ZTS11AVBufferRef", !6, i64 0}
!36 = !{!"p1 _ZTS16AVPacketSideData", !6, i64 0}
!37 = !{!38, !15, i64 0}
!38 = !{!"AVCodecParameters", !15, i64 0, !15, i64 4, !15, i64 8, !20, i64 16, !15, i64 24, !36, i64 32, !15, i64 40, !15, i64 44, !21, i64 48, !15, i64 56, !15, i64 60, !15, i64 64, !15, i64 68, !15, i64 72, !15, i64 76, !33, i64 80, !33, i64 88, !15, i64 96, !15, i64 100, !15, i64 104, !15, i64 108, !15, i64 112, !15, i64 116, !15, i64 120, !39, i64 128, !15, i64 152, !15, i64 156, !15, i64 160, !15, i64 164, !15, i64 168, !15, i64 172}
!39 = !{!"AVChannelLayout", !15, i64 0, !15, i64 4, !7, i64 8, !6, i64 16}
!40 = !{!38, !15, i64 4}
!41 = !{!39, !15, i64 0}
!42 = !{!39, !15, i64 4}
!43 = !{!7, !7, i64 0}
!44 = !{!39, !6, i64 16}
!45 = !{i64 0, i64 4, !46, i64 4, i64 4, !46, i64 8, i64 8, !43, i64 16, i64 8, !47}
!46 = !{!15, !15, i64 0}
!47 = !{!6, !6, i64 0}
!48 = !{!38, !15, i64 132}
!49 = !{!38, !20, i64 16}
!50 = !{!10, !14, i64 32}
!51 = !{!52, !21, i64 0}
!52 = !{!"AFCDemuxContext", !21, i64 0}
!53 = !{!31, !21, i64 48}
!54 = !{!38, !15, i64 152}
!55 = !{!56, !56, i64 0}
!56 = !{!"p1 _ZTS8AVPacket", !6, i64 0}
!57 = !{!21, !21, i64 0}
!58 = !{!34, !15, i64 36}
!59 = !{!14, !14, i64 0}
